target datalayout = "e-m:e-p270:32:32-p271:32:32-p272:64:64-i64:64-i128:128-f80:128-n8:16:32:64-S128"
target triple = "x86_64-pc-linux-gnu"

%"class.std::__cxx11::basic_string" = type { %"struct.std::__cxx11::basic_string<char>::_Alloc_hider", i64, %union.anon }
%"struct.std::__cxx11::basic_string<char>::_Alloc_hider" = type { ptr }
%union.anon = type { i64, [8 x i8] }

; Function Attrs: mustprogress nounwind uwtable
define available_externally noundef ptr @_ZNKSt7__cxx1112basic_stringIcSt11char_traitsIcESaIcEE7_M_dataEv(ptr noundef nonnull align 8 dereferenceable(32) %0) #5 align 2 {
  %2 = alloca ptr, align 8
  store ptr %0, ptr %2, align 8, !tbaa !11
  %3 = load ptr, ptr %2, align 8
  %4 = getelementptr inbounds nuw %"class.std::__cxx11::basic_string", ptr %3, i32 0, i32 0
  %5 = getelementptr inbounds nuw %"struct.std::__cxx11::basic_string<char>::_Alloc_hider", ptr %4, i32 0, i32 0
  %6 = load ptr, ptr %5, align 8, !tbaa !68
  ret ptr %6
}

; Function Attrs: mustprogress nounwind uwtable
define available_externally noundef nonnull align 1 dereferenceable(1) ptr @_ZNKSt7__cxx1112basic_stringIcSt11char_traitsIcESaIcEEixEm(ptr noundef nonnull align 8 dereferenceable(32) %0, i64 noundef %1) #5 align 2 {
  %3 = alloca ptr, align 8
  %4 = alloca i64, align 8
  store ptr %0, ptr %3, align 8, !tbaa !11
  store i64 %1, ptr %4, align 8, !tbaa !31
  %5 = load ptr, ptr %3, align 8
  br label %6

6:                                                ; preds = %2
  br label %7

7:                                                ; preds = %6
  br label %8

8:                                                ; preds = %7
  %9 = call noundef ptr @_ZNKSt7__cxx1112basic_stringIcSt11char_traitsIcESaIcEE7_M_dataEv(ptr noundef nonnull align 8 dereferenceable(32) %5)
  %10 = load i64, ptr %4, align 8, !tbaa !31
  %11 = getelementptr inbounds nuw i8, ptr %9, i64 %10
  ret ptr %11
}

; Function Attrs: mustprogress nounwind uwtable
define void @_ZN4SHA115buffer_to_blockERKNSt7__cxx1112basic_stringIcSt11char_traitsIcESaIcEEEPj(ptr noundef nonnull align 8 dereferenceable(32) %0, ptr noundef %1) #5 align 2 {
  %3 = alloca ptr, align 8
  %4 = alloca ptr, align 8
  %5 = alloca i32, align 4
  store ptr %0, ptr %3, align 8, !tbaa !11
  store ptr %1, ptr %4, align 8, !tbaa !36
  call void @llvm.lifetime.start.p0(i64 4, ptr %5) #3
  store i32 0, ptr %5, align 4, !tbaa !13
  br label %6

6:                                                ; preds = %57, %2
  %7 = load i32, ptr %5, align 4, !tbaa !13
  %8 = icmp ult i32 %7, 16
  br i1 %8, label %10, label %9

9:                                                ; preds = %6
  call void @llvm.lifetime.end.p0(i64 4, ptr %5) #3
  br label %60

10:                                               ; preds = %6
  %11 = load ptr, ptr %3, align 8, !tbaa !11
  %12 = load i32, ptr %5, align 4, !tbaa !13
  %13 = mul i32 4, %12
  %14 = add i32 %13, 3
  %15 = zext i32 %14 to i64
  %16 = call noundef nonnull align 1 dereferenceable(1) ptr @_ZNKSt7__cxx1112basic_stringIcSt11char_traitsIcESaIcEEixEm(ptr noundef nonnull align 8 dereferenceable(32) %11, i64 noundef %15) #3
  %17 = load i8, ptr %16, align 1, !tbaa !38
  %18 = sext i8 %17 to i32
  %19 = and i32 %18, 255
  %20 = load ptr, ptr %3, align 8, !tbaa !11
  %21 = load i32, ptr %5, align 4, !tbaa !13
  %22 = mul i32 4, %21
  %23 = add i32 %22, 2
  %24 = zext i32 %23 to i64
  %25 = call noundef nonnull align 1 dereferenceable(1) ptr @_ZNKSt7__cxx1112basic_stringIcSt11char_traitsIcESaIcEEixEm(ptr noundef nonnull align 8 dereferenceable(32) %20, i64 noundef %24) #3
  %26 = load i8, ptr %25, align 1, !tbaa !38
  %27 = sext i8 %26 to i32
  %28 = and i32 %27, 255
  %29 = shl i32 %28, 8
  %30 = or i32 %19, %29
  %31 = load ptr, ptr %3, align 8, !tbaa !11
  %32 = load i32, ptr %5, align 4, !tbaa !13
  %33 = mul i32 4, %32
  %34 = add i32 %33, 1
  %35 = zext i32 %34 to i64
  %36 = call noundef nonnull align 1 dereferenceable(1) ptr @_ZNKSt7__cxx1112basic_stringIcSt11char_traitsIcESaIcEEixEm(ptr noundef nonnull align 8 dereferenceable(32) %31, i64 noundef %35) #3
  %37 = load i8, ptr %36, align 1, !tbaa !38
  %38 = sext i8 %37 to i32
  %39 = and i32 %38, 255
  %40 = shl i32 %39, 16
  %41 = or i32 %30, %40
  %42 = load ptr, ptr %3, align 8, !tbaa !11
  %43 = load i32, ptr %5, align 4, !tbaa !13
  %44 = mul i32 4, %43
  %45 = add i32 %44, 0
  %46 = zext i32 %45 to i64
  %47 = call noundef nonnull align 1 dereferenceable(1) ptr @_ZNKSt7__cxx1112basic_stringIcSt11char_traitsIcESaIcEEixEm(ptr noundef nonnull align 8 dereferenceable(32) %42, i64 noundef %46) #3
  %48 = load i8, ptr %47, align 1, !tbaa !38
  %49 = sext i8 %48 to i32
  %50 = and i32 %49, 255
  %51 = shl i32 %50, 24
  %52 = or i32 %41, %51
  %53 = load ptr, ptr %4, align 8, !tbaa !36
  %54 = load i32, ptr %5, align 4, !tbaa !13
  %55 = zext i32 %54 to i64
  %56 = getelementptr inbounds nuw i32, ptr %53, i64 %55
  store i32 %52, ptr %56, align 4, !tbaa !13
  br label %57

57:                                               ; preds = %10
  %58 = load i32, ptr %5, align 4, !tbaa !13
  %59 = add i32 %58, 1
  store i32 %59, ptr %5, align 4, !tbaa !13
  br label %6, !llvm.loop !39

60:                                               ; preds = %9
  ret void
}