; Function Attrs: mustprogress nofree norecurse nosync nounwind memory(read, argmem: readwrite, inaccessiblemem: none) uwtable
define void @_ZN4SHA115buffer_to_blockERKNSt7__cxx1112basic_stringIcSt11char_traitsIcESaIcEEEPj(ptr noundef nonnull readonly align 8 captures(none) dereferenceable(32) %0, ptr noundef writeonly captures(none) %1) local_unnamed_addr #6 align 2 {
  %3 = load ptr, ptr %0, align 8, !tbaa !20
  br label %5

4:                                                ; preds = %5
  ret void

5:                                                ; preds = %2, %5
  %indvars.iv = phi i64 [ 0, %2 ], [ %indvars.iv.next, %5 ]
  %6 = shl nuw nsw i64 %indvars.iv, 2
  %7 = or disjoint i64 %6, 3
  %8 = getelementptr inbounds nuw i8, ptr %3, i64 %7
  %9 = load i8, ptr %8, align 1, !tbaa !15
  %10 = zext i8 %9 to i32
  %11 = or disjoint i64 %6, 2
  %12 = getelementptr inbounds nuw i8, ptr %3, i64 %11
  %13 = load i8, ptr %12, align 1, !tbaa !15
  %14 = zext i8 %13 to i32
  %15 = shl nuw nsw i32 %14, 8
  %16 = or disjoint i32 %15, %10
  %17 = or disjoint i64 %6, 1
  %18 = getelementptr inbounds nuw i8, ptr %3, i64 %17
  %19 = load i8, ptr %18, align 1, !tbaa !15
  %20 = zext i8 %19 to i32
  %21 = shl nuw nsw i32 %20, 16
  %22 = or disjoint i32 %16, %21
  %23 = getelementptr inbounds nuw i8, ptr %3, i64 %6
  %24 = load i8, ptr %23, align 1, !tbaa !15
  %25 = zext i8 %24 to i32
  %26 = shl nuw i32 %25, 24
  %27 = or disjoint i32 %22, %26
  %28 = getelementptr inbounds nuw i32, ptr %1, i64 %indvars.iv
  store i32 %27, ptr %28, align 4, !tbaa !16
  %indvars.iv.next = add nuw nsw i64 %indvars.iv, 1
  %exitcond.not = icmp eq i64 %indvars.iv.next, 16
  br i1 %exitcond.not, label %4, label %5, !llvm.loop !34
}